target datalayout = "e-m:e-p270:32:32-p271:32:32-p272:64:64-i64:64-i128:128-f80:128-n8:16:32:64-S128"
target triple = "x86_64-pc-linux-gnu"

%struct.strbuf_t = type { ptr, i64, i64, i32, i32, i32 }

; Function Attrs: inlinehint nounwind uwtable
define internal i64 @strbuf_empty_length(ptr noundef %0) #4 {
  %2 = alloca ptr, align 8
  store ptr %0, ptr %2, align 8, !tbaa !15
  %3 = load ptr, ptr %2, align 8, !tbaa !15
  %4 = getelementptr inbounds nuw %struct.strbuf_t, ptr %3, i32 0, i32 1
  %5 = load i64, ptr %4, align 8, !tbaa !58
  %6 = load ptr, ptr %2, align 8, !tbaa !15
  %7 = getelementptr inbounds nuw %struct.strbuf_t, ptr %6, i32 0, i32 2
  %8 = load i64, ptr %7, align 8, !tbaa !48
  %9 = sub i64 %5, %8
  %10 = sub i64 %9, 1
  ret i64 %10
}

; Function Attrs: inlinehint nounwind uwtable
define internal void @strbuf_append_char_unsafe(ptr noundef %0, i8 noundef signext %1) #4 {
  %3 = alloca ptr, align 8
  %4 = alloca i8, align 1
  store ptr %0, ptr %3, align 8, !tbaa !15
  store i8 %1, ptr %4, align 1, !tbaa !26
  %5 = load i8, ptr %4, align 1, !tbaa !26
  %6 = load ptr, ptr %3, align 8, !tbaa !15
  %7 = getelementptr inbounds nuw %struct.strbuf_t, ptr %6, i32 0, i32 0
  %8 = load ptr, ptr %7, align 8, !tbaa !51
  %9 = load ptr, ptr %3, align 8, !tbaa !15
  %10 = getelementptr inbounds nuw %struct.strbuf_t, ptr %9, i32 0, i32 2
  %11 = load i64, ptr %10, align 8, !tbaa !48
  %12 = add i64 %11, 1
  store i64 %12, ptr %10, align 8, !tbaa !48
  %13 = getelementptr inbounds nuw i8, ptr %8, i64 %11
  store i8 %5, ptr %13, align 1, !tbaa !26
  ret void
}

; Function Attrs: inlinehint nounwind uwtable
define internal void @strbuf_ensure_empty_length(ptr noundef %0, i64 noundef %1) #4 {
  %3 = alloca ptr, align 8
  %4 = alloca i64, align 8
  store ptr %0, ptr %3, align 8, !tbaa !15
  store i64 %1, ptr %4, align 8, !tbaa !20
  %5 = load i64, ptr %4, align 8, !tbaa !20
  %6 = load ptr, ptr %3, align 8, !tbaa !15
  %7 = call i64 @strbuf_empty_length(ptr noundef %6)
  %8 = icmp ugt i64 %5, %7
  br i1 %8, label %9, label %16

9:                                                ; preds = %2
  %10 = load ptr, ptr %3, align 8, !tbaa !15
  %11 = load ptr, ptr %3, align 8, !tbaa !15
  %12 = getelementptr inbounds nuw %struct.strbuf_t, ptr %11, i32 0, i32 2
  %13 = load i64, ptr %12, align 8, !tbaa !48
  %14 = load i64, ptr %4, align 8, !tbaa !20
  %15 = add i64 %13, %14
  call void @strbuf_resize(ptr noundef %10, i64 noundef %15)
  br label %16

16:                                               ; preds = %9, %2
  ret void
}

; Function Attrs: nounwind uwtable
define internal void @json_append_string(ptr noundef %0, ptr noundef %1, i32 noundef %2) #0 {
  %4 = alloca ptr, align 8
  %5 = alloca ptr, align 8
  %6 = alloca i32, align 4
  %7 = alloca ptr, align 8
  %8 = alloca ptr, align 8
  %9 = alloca i64, align 8
  %10 = alloca i64, align 8
  store ptr %0, ptr %4, align 8, !tbaa !4
  store ptr %1, ptr %5, align 8, !tbaa !15
  store i32 %2, ptr %6, align 4, !tbaa !9
  call void @llvm.lifetime.start.p0(i64 8, ptr %7) #9
  call void @llvm.lifetime.start.p0(i64 8, ptr %8) #9
  call void @llvm.lifetime.start.p0(i64 8, ptr %9) #9
  call void @llvm.lifetime.start.p0(i64 8, ptr %10) #9
  %11 = load ptr, ptr %4, align 8, !tbaa !4
  %12 = load i32, ptr %6, align 4, !tbaa !9
  %13 = call ptr @lua_tolstring(ptr noundef %11, i32 noundef %12, ptr noundef %10)
  store ptr %13, ptr %8, align 8, !tbaa !11
  %14 = load i64, ptr %10, align 8, !tbaa !20
  %15 = icmp ugt i64 %14, 3074457345618258599
  br i1 %15, label %16, label %17

16:                                               ; preds = %3
  call void @abort() #10
  unreachable

17:                                               ; preds = %3
  %18 = load ptr, ptr %5, align 8, !tbaa !15
  %19 = load i64, ptr %10, align 8, !tbaa !20
  %20 = mul i64 %19, 6
  %21 = add i64 %20, 2
  call void @strbuf_ensure_empty_length(ptr noundef %18, i64 noundef %21)
  %22 = load ptr, ptr %5, align 8, !tbaa !15
  call void @strbuf_append_char_unsafe(ptr noundef %22, i8 noundef signext 34)
  store i64 0, ptr %9, align 8, !tbaa !20
  br label %23

23:                                               ; preds = %47, %17
  %24 = load i64, ptr %9, align 8, !tbaa !20
  %25 = load i64, ptr %10, align 8, !tbaa !20
  %26 = icmp ult i64 %24, %25
  br i1 %26, label %27, label %50

27:                                               ; preds = %23
  %28 = load ptr, ptr %8, align 8, !tbaa !11
  %29 = load i64, ptr %9, align 8, !tbaa !20
  %30 = getelementptr inbounds nuw i8, ptr %28, i64 %29
  %31 = load i8, ptr %30, align 1, !tbaa !26
  %32 = zext i8 %31 to i64
  %33 = getelementptr inbounds nuw [256 x ptr], ptr @char2escape, i64 0, i64 %32
  %34 = load ptr, ptr %33, align 8, !tbaa !11
  store ptr %34, ptr %7, align 8, !tbaa !11
  %35 = load ptr, ptr %7, align 8, !tbaa !11
  %36 = icmp ne ptr %35, null
  br i1 %36, label %37, label %40

37:                                               ; preds = %27
  %38 = load ptr, ptr %5, align 8, !tbaa !15
  %39 = load ptr, ptr %7, align 8, !tbaa !11
  call void @strbuf_append_string(ptr noundef %38, ptr noundef %39)
  br label %46

40:                                               ; preds = %27
  %41 = load ptr, ptr %5, align 8, !tbaa !15
  %42 = load ptr, ptr %8, align 8, !tbaa !11
  %43 = load i64, ptr %9, align 8, !tbaa !20
  %44 = getelementptr inbounds nuw i8, ptr %42, i64 %43
  %45 = load i8, ptr %44, align 1, !tbaa !26
  call void @strbuf_append_char_unsafe(ptr noundef %41, i8 noundef signext %45)
  br label %46

46:                                               ; preds = %40, %37
  br label %47

47:                                               ; preds = %46
  %48 = load i64, ptr %9, align 8, !tbaa !20
  %49 = add i64 %48, 1
  store i64 %49, ptr %9, align 8, !tbaa !20
  br label %23, !llvm.loop !52

50:                                               ; preds = %23
  %51 = load ptr, ptr %5, align 8, !tbaa !15
  call void @strbuf_append_char_unsafe(ptr noundef %51, i8 noundef signext 34)
  call void @llvm.lifetime.end.p0(i64 8, ptr %10) #9
  call void @llvm.lifetime.end.p0(i64 8, ptr %9) #9
  call void @llvm.lifetime.end.p0(i64 8, ptr %8) #9
  call void @llvm.lifetime.end.p0(i64 8, ptr %7) #9
  ret void
}