; Function Attrs: nounwind uwtable
define internal fastcc void @json_append_string(ptr noundef %0, ptr noundef %1, i32 noundef range(i32 -2, 0) %2) unnamed_addr #0 {
  %4 = alloca i64, align 8
  call void @llvm.lifetime.start.p0(i64 8, ptr nonnull %4) #12
  %5 = call ptr @lua_tolstring(ptr noundef %0, i32 noundef %2, ptr noundef nonnull %4) #12
  %6 = load i64, ptr %4, align 8, !tbaa !39
  %7 = icmp ugt i64 %6, 3074457345618258599
  br i1 %7, label %8, label %9

8:                                                ; preds = %3
  call void @abort() #13
  unreachable

9:                                                ; preds = %3
  %10 = mul nuw i64 %6, 6
  %11 = add nuw i64 %10, 2
  %12 = getelementptr i8, ptr %1, i64 8
  %.val.i = load i64, ptr %12, align 8, !tbaa !44
  %13 = getelementptr i8, ptr %1, i64 16
  %.val4.i = load i64, ptr %13, align 8, !tbaa !32
  %14 = xor i64 %.val4.i, -1
  %15 = add i64 %.val.i, %14
  %16 = icmp ugt i64 %11, %15
  br i1 %16, label %17, label %strbuf_ensure_empty_length.exit

17:                                               ; preds = %9
  %18 = add i64 %.val4.i, %11
  call void @strbuf_resize(ptr noundef nonnull %1, i64 noundef %18) #12
  %.pre = load i64, ptr %13, align 8, !tbaa !32
  br label %strbuf_ensure_empty_length.exit

strbuf_ensure_empty_length.exit:                  ; preds = %9, %17
  %19 = phi i64 [ %.val4.i, %9 ], [ %.pre, %17 ]
  %20 = load ptr, ptr %1, align 8, !tbaa !33
  %21 = add i64 %19, 1
  store i64 %21, ptr %13, align 8, !tbaa !32
  %22 = getelementptr inbounds nuw i8, ptr %20, i64 %19
  store i8 34, ptr %22, align 1, !tbaa !25
  %23 = load i64, ptr %4, align 8, !tbaa !39
  %.not17 = icmp eq i64 %23, 0
  br i1 %.not17, label %._crit_edge, label %.lr.ph

.lr.ph:                                           ; preds = %strbuf_ensure_empty_length.exit, %35
  %.016 = phi i64 [ %36, %35 ], [ 0, %strbuf_ensure_empty_length.exit ]
  %24 = getelementptr inbounds nuw i8, ptr %5, i64 %.016
  %25 = load i8, ptr %24, align 1, !tbaa !25
  %26 = zext i8 %25 to i64
  %27 = getelementptr inbounds nuw [256 x ptr], ptr @char2escape, i64 0, i64 %26
  %28 = load ptr, ptr %27, align 8, !tbaa !30
  %.not = icmp eq ptr %28, null
  br i1 %.not, label %30, label %29

29:                                               ; preds = %.lr.ph
  call void @strbuf_append_string(ptr noundef nonnull %1, ptr noundef nonnull %28) #12
  br label %35

30:                                               ; preds = %.lr.ph
  %31 = load ptr, ptr %1, align 8, !tbaa !33
  %32 = load i64, ptr %13, align 8, !tbaa !32
  %33 = add i64 %32, 1
  store i64 %33, ptr %13, align 8, !tbaa !32
  %34 = getelementptr inbounds nuw i8, ptr %31, i64 %32
  store i8 %25, ptr %34, align 1, !tbaa !25
  br label %35

35:                                               ; preds = %29, %30
  %36 = add nuw i64 %.016, 1
  %37 = load i64, ptr %4, align 8, !tbaa !39
  %38 = icmp ult i64 %36, %37
  br i1 %38, label %.lr.ph, label %._crit_edge, !llvm.loop !48

._crit_edge:                                      ; preds = %35, %strbuf_ensure_empty_length.exit
  %39 = load ptr, ptr %1, align 8, !tbaa !33
  %40 = load i64, ptr %13, align 8, !tbaa !32
  %41 = add i64 %40, 1
  store i64 %41, ptr %13, align 8, !tbaa !32
  %42 = getelementptr inbounds nuw i8, ptr %39, i64 %40
  store i8 34, ptr %42, align 1, !tbaa !25
  call void @llvm.lifetime.end.p0(i64 8, ptr nonnull %4) #12
  ret void
}